target datalayout = "e-m:e-p270:32:32-p271:32:32-p272:64:64-i64:64-i128:128-f80:128-n8:16:32:64-S128"
target triple = "x86_64-pc-linux-gnu"

@ett_s7comm_szl_0131_0002_funkt_0 = internal global i32 0, align 4
@ett_s7comm_szl_0131_0002_funkt_1 = internal global i32 0, align 4
@ett_s7comm_szl_0131_0002_funkt_2 = internal global i32 0, align 4
@ett_s7comm_szl_0131_0002_trgereig_0 = internal global i32 0, align 4
@ett_s7comm_szl_0131_0002_trgereig_1 = internal global i32 0, align 4
@hf_s7comm_szl_0131_0002_index = internal global i32 0, align 4
@hf_s7comm_szl_0131_0002_funkt_0 = internal global i32 0, align 4
@hf_s7comm_szl_0131_0002_funkt_1 = internal global i32 0, align 4
@hf_s7comm_szl_0131_0002_funkt_2 = internal global i32 0, align 4
@hf_s7comm_szl_0131_0002_funkt_3 = internal global i32 0, align 4
@hf_s7comm_szl_0131_0002_funkt_4 = internal global i32 0, align 4
@hf_s7comm_szl_0131_0002_funkt_5 = internal global i32 0, align 4
@hf_s7comm_szl_0131_0002_aseg = internal global i32 0, align 4
@hf_s7comm_szl_0131_0002_eseg = internal global i32 0, align 4
@hf_s7comm_szl_0131_0002_trgereig_0 = internal global i32 0, align 4
@hf_s7comm_szl_0131_0002_trgereig_1 = internal global i32 0, align 4
@hf_s7comm_szl_0131_0002_trgereig_2 = internal global i32 0, align 4
@hf_s7comm_szl_0131_0002_trgbed = internal global i32 0, align 4
@hf_s7comm_szl_0131_0002_pfad = internal global i32 0, align 4
@hf_s7comm_szl_0131_0002_tiefe = internal global i32 0, align 4
@hf_s7comm_szl_0131_0002_systrig = internal global i32 0, align 4
@hf_s7comm_szl_0131_0002_erg_par = internal global i32 0, align 4
@hf_s7comm_szl_0131_0002_erg_pat_1 = internal global i32 0, align 4
@hf_s7comm_szl_0131_0002_erg_pat_2 = internal global i32 0, align 4
@hf_s7comm_szl_0131_0002_force = internal global i32 0, align 4
@hf_s7comm_szl_0131_0002_time = internal global i32 0, align 4
@hf_s7comm_szl_0131_0002_res = internal global i32 0, align 4

; Function Attrs: null_pointer_is_valid sspstrong uwtable
define internal i32 @s7comm_decode_szl_id_0131_idx_0002(ptr noundef %0, ptr noundef %1, i32 noundef %2) #0 {
  %4 = alloca ptr, align 8
  %5 = alloca ptr, align 8
  %6 = alloca i32, align 4
  store ptr %0, ptr %4, align 8
  store ptr %1, ptr %5, align 8
  store i32 %2, ptr %6, align 4
  %7 = load ptr, ptr %5, align 8
  %8 = load i32, ptr @hf_s7comm_szl_0131_0002_index, align 4
  %9 = load ptr, ptr %4, align 8
  %10 = load i32, ptr %6, align 4
  %11 = call ptr @proto_tree_add_item(ptr noundef %7, i32 noundef %8, ptr noundef %9, i32 noundef %10, i32 noundef 2, i32 noundef 0)
  %12 = load i32, ptr %6, align 4
  %13 = add i32 %12, 2
  store i32 %13, ptr %6, align 4
  %14 = load ptr, ptr %5, align 8
  %15 = load ptr, ptr %4, align 8
  %16 = load i32, ptr %6, align 4
  %17 = load i32, ptr @hf_s7comm_szl_0131_0002_funkt_0, align 4
  %18 = load i32, ptr @ett_s7comm_szl_0131_0002_funkt_0, align 4
  %19 = call ptr @proto_tree_add_bitmask(ptr noundef %14, ptr noundef %15, i32 noundef %16, i32 noundef %17, i32 noundef %18, ptr noundef @s7comm_szl_0131_0002_funkt_0_fields, i32 noundef 0)
  %20 = load i32, ptr %6, align 4
  %21 = add i32 %20, 1
  store i32 %21, ptr %6, align 4
  %22 = load ptr, ptr %5, align 8
  %23 = load ptr, ptr %4, align 8
  %24 = load i32, ptr %6, align 4
  %25 = load i32, ptr @hf_s7comm_szl_0131_0002_funkt_1, align 4
  %26 = load i32, ptr @ett_s7comm_szl_0131_0002_funkt_1, align 4
  %27 = call ptr @proto_tree_add_bitmask(ptr noundef %22, ptr noundef %23, i32 noundef %24, i32 noundef %25, i32 noundef %26, ptr noundef @s7comm_szl_0131_0002_funkt_1_fields, i32 noundef 0)
  %28 = load i32, ptr %6, align 4
  %29 = add i32 %28, 1
  store i32 %29, ptr %6, align 4
  %30 = load ptr, ptr %5, align 8
  %31 = load ptr, ptr %4, align 8
  %32 = load i32, ptr %6, align 4
  %33 = load i32, ptr @hf_s7comm_szl_0131_0002_funkt_2, align 4
  %34 = load i32, ptr @ett_s7comm_szl_0131_0002_funkt_2, align 4
  %35 = call ptr @proto_tree_add_bitmask(ptr noundef %30, ptr noundef %31, i32 noundef %32, i32 noundef %33, i32 noundef %34, ptr noundef @s7comm_szl_0131_0002_funkt_2_fields, i32 noundef 0)
  %36 = load i32, ptr %6, align 4
  %37 = add i32 %36, 1
  store i32 %37, ptr %6, align 4
  %38 = load ptr, ptr %5, align 8
  %39 = load i32, ptr @hf_s7comm_szl_0131_0002_funkt_3, align 4
  %40 = load ptr, ptr %4, align 8
  %41 = load i32, ptr %6, align 4
  %42 = call ptr @proto_tree_add_item(ptr noundef %38, i32 noundef %39, ptr noundef %40, i32 noundef %41, i32 noundef 1, i32 noundef 0)
  %43 = load i32, ptr %6, align 4
  %44 = add i32 %43, 1
  store i32 %44, ptr %6, align 4
  %45 = load ptr, ptr %5, align 8
  %46 = load i32, ptr @hf_s7comm_szl_0131_0002_funkt_4, align 4
  %47 = load ptr, ptr %4, align 8
  %48 = load i32, ptr %6, align 4
  %49 = call ptr @proto_tree_add_item(ptr noundef %45, i32 noundef %46, ptr noundef %47, i32 noundef %48, i32 noundef 1, i32 noundef 0)
  %50 = load i32, ptr %6, align 4
  %51 = add i32 %50, 1
  store i32 %51, ptr %6, align 4
  %52 = load ptr, ptr %5, align 8
  %53 = load i32, ptr @hf_s7comm_szl_0131_0002_funkt_5, align 4
  %54 = load ptr, ptr %4, align 8
  %55 = load i32, ptr %6, align 4
  %56 = call ptr @proto_tree_add_item(ptr noundef %52, i32 noundef %53, ptr noundef %54, i32 noundef %55, i32 noundef 1, i32 noundef 0)
  %57 = load i32, ptr %6, align 4
  %58 = add i32 %57, 1
  store i32 %58, ptr %6, align 4
  %59 = load ptr, ptr %5, align 8
  %60 = load i32, ptr @hf_s7comm_szl_0131_0002_aseg, align 4
  %61 = load ptr, ptr %4, align 8
  %62 = load i32, ptr %6, align 4
  %63 = call ptr @proto_tree_add_item(ptr noundef %59, i32 noundef %60, ptr noundef %61, i32 noundef %62, i32 noundef 6, i32 noundef 0)
  %64 = load i32, ptr %6, align 4
  %65 = add i32 %64, 6
  store i32 %65, ptr %6, align 4
  %66 = load ptr, ptr %5, align 8
  %67 = load i32, ptr @hf_s7comm_szl_0131_0002_eseg, align 4
  %68 = load ptr, ptr %4, align 8
  %69 = load i32, ptr %6, align 4
  %70 = call ptr @proto_tree_add_item(ptr noundef %66, i32 noundef %67, ptr noundef %68, i32 noundef %69, i32 noundef 6, i32 noundef 0)
  %71 = load i32, ptr %6, align 4
  %72 = add i32 %71, 6
  store i32 %72, ptr %6, align 4
  %73 = load ptr, ptr %5, align 8
  %74 = load ptr, ptr %4, align 8
  %75 = load i32, ptr %6, align 4
  %76 = load i32, ptr @hf_s7comm_szl_0131_0002_trgereig_0, align 4
  %77 = load i32, ptr @ett_s7comm_szl_0131_0002_trgereig_0, align 4
  %78 = call ptr @proto_tree_add_bitmask(ptr noundef %73, ptr noundef %74, i32 noundef %75, i32 noundef %76, i32 noundef %77, ptr noundef @s7comm_szl_0131_0002_trgereig_0_fields, i32 noundef 0)
  %79 = load i32, ptr %6, align 4
  %80 = add i32 %79, 1
  store i32 %80, ptr %6, align 4
  %81 = load ptr, ptr %5, align 8
  %82 = load ptr, ptr %4, align 8
  %83 = load i32, ptr %6, align 4
  %84 = load i32, ptr @hf_s7comm_szl_0131_0002_trgereig_1, align 4
  %85 = load i32, ptr @ett_s7comm_szl_0131_0002_trgereig_1, align 4
  %86 = call ptr @proto_tree_add_bitmask(ptr noundef %81, ptr noundef %82, i32 noundef %83, i32 noundef %84, i32 noundef %85, ptr noundef @s7comm_szl_0131_0002_trgereig_1_fields, i32 noundef 0)
  %87 = load i32, ptr %6, align 4
  %88 = add i32 %87, 1
  store i32 %88, ptr %6, align 4
  %89 = load ptr, ptr %5, align 8
  %90 = load i32, ptr @hf_s7comm_szl_0131_0002_trgereig_2, align 4
  %91 = load ptr, ptr %4, align 8
  %92 = load i32, ptr %6, align 4
  %93 = call ptr @proto_tree_add_item(ptr noundef %89, i32 noundef %90, ptr noundef %91, i32 noundef %92, i32 noundef 1, i32 noundef 0)
  %94 = load i32, ptr %6, align 4
  %95 = add i32 %94, 1
  store i32 %95, ptr %6, align 4
  %96 = load ptr, ptr %5, align 8
  %97 = load i32, ptr @hf_s7comm_szl_0131_0002_trgbed, align 4
  %98 = load ptr, ptr %4, align 8
  %99 = load i32, ptr %6, align 4
  %100 = call ptr @proto_tree_add_item(ptr noundef %96, i32 noundef %97, ptr noundef %98, i32 noundef %99, i32 noundef 1, i32 noundef 0)
  %101 = load i32, ptr %6, align 4
  %102 = add i32 %101, 1
  store i32 %102, ptr %6, align 4
  %103 = load ptr, ptr %5, align 8
  %104 = load i32, ptr @hf_s7comm_szl_0131_0002_pfad, align 4
  %105 = load ptr, ptr %4, align 8
  %106 = load i32, ptr %6, align 4
  %107 = call ptr @proto_tree_add_item(ptr noundef %103, i32 noundef %104, ptr noundef %105, i32 noundef %106, i32 noundef 1, i32 noundef 0)
  %108 = load i32, ptr %6, align 4
  %109 = add i32 %108, 1
  store i32 %109, ptr %6, align 4
  %110 = load ptr, ptr %5, align 8
  %111 = load i32, ptr @hf_s7comm_szl_0131_0002_tiefe, align 4
  %112 = load ptr, ptr %4, align 8
  %113 = load i32, ptr %6, align 4
  %114 = call ptr @proto_tree_add_item(ptr noundef %110, i32 noundef %111, ptr noundef %112, i32 noundef %113, i32 noundef 1, i32 noundef 0)
  %115 = load i32, ptr %6, align 4
  %116 = add i32 %115, 1
  store i32 %116, ptr %6, align 4
  %117 = load ptr, ptr %5, align 8
  %118 = load i32, ptr @hf_s7comm_szl_0131_0002_systrig, align 4
  %119 = load ptr, ptr %4, align 8
  %120 = load i32, ptr %6, align 4
  %121 = call ptr @proto_tree_add_item(ptr noundef %117, i32 noundef %118, ptr noundef %119, i32 noundef %120, i32 noundef 1, i32 noundef 0)
  %122 = load i32, ptr %6, align 4
  %123 = add i32 %122, 1
  store i32 %123, ptr %6, align 4
  %124 = load ptr, ptr %5, align 8
  %125 = load i32, ptr @hf_s7comm_szl_0131_0002_erg_par, align 4
  %126 = load ptr, ptr %4, align 8
  %127 = load i32, ptr %6, align 4
  %128 = call ptr @proto_tree_add_item(ptr noundef %124, i32 noundef %125, ptr noundef %126, i32 noundef %127, i32 noundef 1, i32 noundef 0)
  %129 = load i32, ptr %6, align 4
  %130 = add i32 %129, 1
  store i32 %130, ptr %6, align 4
  %131 = load ptr, ptr %5, align 8
  %132 = load i32, ptr @hf_s7comm_szl_0131_0002_erg_pat_1, align 4
  %133 = load ptr, ptr %4, align 8
  %134 = load i32, ptr %6, align 4
  %135 = call ptr @proto_tree_add_item(ptr noundef %131, i32 noundef %132, ptr noundef %133, i32 noundef %134, i32 noundef 2, i32 noundef 0)
  %136 = load i32, ptr %6, align 4
  %137 = add i32 %136, 2
  store i32 %137, ptr %6, align 4
  %138 = load ptr, ptr %5, align 8
  %139 = load i32, ptr @hf_s7comm_szl_0131_0002_erg_pat_2, align 4
  %140 = load ptr, ptr %4, align 8
  %141 = load i32, ptr %6, align 4
  %142 = call ptr @proto_tree_add_item(ptr noundef %138, i32 noundef %139, ptr noundef %140, i32 noundef %141, i32 noundef 2, i32 noundef 0)
  %143 = load i32, ptr %6, align 4
  %144 = add i32 %143, 2
  store i32 %144, ptr %6, align 4
  %145 = load ptr, ptr %5, align 8
  %146 = load i32, ptr @hf_s7comm_szl_0131_0002_force, align 4
  %147 = load ptr, ptr %4, align 8
  %148 = load i32, ptr %6, align 4
  %149 = call ptr @proto_tree_add_item(ptr noundef %145, i32 noundef %146, ptr noundef %147, i32 noundef %148, i32 noundef 2, i32 noundef 0)
  %150 = load i32, ptr %6, align 4
  %151 = add i32 %150, 2
  store i32 %151, ptr %6, align 4
  %152 = load ptr, ptr %5, align 8
  %153 = load i32, ptr @hf_s7comm_szl_0131_0002_time, align 4
  %154 = load ptr, ptr %4, align 8
  %155 = load i32, ptr %6, align 4
  %156 = call ptr @proto_tree_add_item(ptr noundef %152, i32 noundef %153, ptr noundef %154, i32 noundef %155, i32 noundef 2, i32 noundef 0)
  %157 = load i32, ptr %6, align 4
  %158 = add i32 %157, 2
  store i32 %158, ptr %6, align 4
  %159 = load ptr, ptr %5, align 8
  %160 = load i32, ptr @hf_s7comm_szl_0131_0002_res, align 4
  %161 = load ptr, ptr %4, align 8
  %162 = load i32, ptr %6, align 4
  %163 = call ptr @proto_tree_add_item(ptr noundef %159, i32 noundef %160, ptr noundef %161, i32 noundef %162, i32 noundef 4, i32 noundef 0)
  %164 = load i32, ptr %6, align 4
  %165 = add i32 %164, 4
  store i32 %165, ptr %6, align 4
  %166 = load i32, ptr %6, align 4
  ret i32 %166
}