; Function Attrs: null_pointer_is_valid sspstrong uwtable
define internal fastcc noundef i32 @s7comm_decode_szl_id_0131_idx_0002(ptr noundef %0, ptr noundef %1, i32 noundef %2) unnamed_addr #0 {
  %4 = load i32, ptr @hf_s7comm_szl_0131_0002_index, align 4
  %5 = tail call ptr @proto_tree_add_item(ptr noundef %1, i32 noundef %4, ptr noundef %0, i32 noundef %2, i32 noundef 2, i32 noundef 0)
  %6 = add i32 %2, 2
  %7 = load i32, ptr @hf_s7comm_szl_0131_0002_funkt_0, align 4
  %8 = load i32, ptr @ett_s7comm_szl_0131_0002_funkt_0, align 4
  %9 = tail call ptr @proto_tree_add_bitmask(ptr noundef %1, ptr noundef %0, i32 noundef %6, i32 noundef %7, i32 noundef %8, ptr noundef nonnull @s7comm_szl_0131_0002_funkt_0_fields, i32 noundef 0)
  %10 = add i32 %2, 3
  %11 = load i32, ptr @hf_s7comm_szl_0131_0002_funkt_1, align 4
  %12 = load i32, ptr @ett_s7comm_szl_0131_0002_funkt_1, align 4
  %13 = tail call ptr @proto_tree_add_bitmask(ptr noundef %1, ptr noundef %0, i32 noundef %10, i32 noundef %11, i32 noundef %12, ptr noundef nonnull @s7comm_szl_0131_0002_funkt_1_fields, i32 noundef 0)
  %14 = add i32 %2, 4
  %15 = load i32, ptr @hf_s7comm_szl_0131_0002_funkt_2, align 4
  %16 = load i32, ptr @ett_s7comm_szl_0131_0002_funkt_2, align 4
  %17 = tail call ptr @proto_tree_add_bitmask(ptr noundef %1, ptr noundef %0, i32 noundef %14, i32 noundef %15, i32 noundef %16, ptr noundef nonnull @s7comm_szl_0131_0002_funkt_2_fields, i32 noundef 0)
  %18 = add i32 %2, 5
  %19 = load i32, ptr @hf_s7comm_szl_0131_0002_funkt_3, align 4
  %20 = tail call ptr @proto_tree_add_item(ptr noundef %1, i32 noundef %19, ptr noundef %0, i32 noundef %18, i32 noundef 1, i32 noundef 0)
  %21 = add i32 %2, 6
  %22 = load i32, ptr @hf_s7comm_szl_0131_0002_funkt_4, align 4
  %23 = tail call ptr @proto_tree_add_item(ptr noundef %1, i32 noundef %22, ptr noundef %0, i32 noundef %21, i32 noundef 1, i32 noundef 0)
  %24 = add i32 %2, 7
  %25 = load i32, ptr @hf_s7comm_szl_0131_0002_funkt_5, align 4
  %26 = tail call ptr @proto_tree_add_item(ptr noundef %1, i32 noundef %25, ptr noundef %0, i32 noundef %24, i32 noundef 1, i32 noundef 0)
  %27 = add i32 %2, 8
  %28 = load i32, ptr @hf_s7comm_szl_0131_0002_aseg, align 4
  %29 = tail call ptr @proto_tree_add_item(ptr noundef %1, i32 noundef %28, ptr noundef %0, i32 noundef %27, i32 noundef 6, i32 noundef 0)
  %30 = add i32 %2, 14
  %31 = load i32, ptr @hf_s7comm_szl_0131_0002_eseg, align 4
  %32 = tail call ptr @proto_tree_add_item(ptr noundef %1, i32 noundef %31, ptr noundef %0, i32 noundef %30, i32 noundef 6, i32 noundef 0)
  %33 = add i32 %2, 20
  %34 = load i32, ptr @hf_s7comm_szl_0131_0002_trgereig_0, align 4
  %35 = load i32, ptr @ett_s7comm_szl_0131_0002_trgereig_0, align 4
  %36 = tail call ptr @proto_tree_add_bitmask(ptr noundef %1, ptr noundef %0, i32 noundef %33, i32 noundef %34, i32 noundef %35, ptr noundef nonnull @s7comm_szl_0131_0002_trgereig_0_fields, i32 noundef 0)
  %37 = add i32 %2, 21
  %38 = load i32, ptr @hf_s7comm_szl_0131_0002_trgereig_1, align 4
  %39 = load i32, ptr @ett_s7comm_szl_0131_0002_trgereig_1, align 4
  %40 = tail call ptr @proto_tree_add_bitmask(ptr noundef %1, ptr noundef %0, i32 noundef %37, i32 noundef %38, i32 noundef %39, ptr noundef nonnull @s7comm_szl_0131_0002_trgereig_1_fields, i32 noundef 0)
  %41 = add i32 %2, 22
  %42 = load i32, ptr @hf_s7comm_szl_0131_0002_trgereig_2, align 4
  %43 = tail call ptr @proto_tree_add_item(ptr noundef %1, i32 noundef %42, ptr noundef %0, i32 noundef %41, i32 noundef 1, i32 noundef 0)
  %44 = add i32 %2, 23
  %45 = load i32, ptr @hf_s7comm_szl_0131_0002_trgbed, align 4
  %46 = tail call ptr @proto_tree_add_item(ptr noundef %1, i32 noundef %45, ptr noundef %0, i32 noundef %44, i32 noundef 1, i32 noundef 0)
  %47 = add i32 %2, 24
  %48 = load i32, ptr @hf_s7comm_szl_0131_0002_pfad, align 4
  %49 = tail call ptr @proto_tree_add_item(ptr noundef %1, i32 noundef %48, ptr noundef %0, i32 noundef %47, i32 noundef 1, i32 noundef 0)
  %50 = add i32 %2, 25
  %51 = load i32, ptr @hf_s7comm_szl_0131_0002_tiefe, align 4
  %52 = tail call ptr @proto_tree_add_item(ptr noundef %1, i32 noundef %51, ptr noundef %0, i32 noundef %50, i32 noundef 1, i32 noundef 0)
  %53 = add i32 %2, 26
  %54 = load i32, ptr @hf_s7comm_szl_0131_0002_systrig, align 4
  %55 = tail call ptr @proto_tree_add_item(ptr noundef %1, i32 noundef %54, ptr noundef %0, i32 noundef %53, i32 noundef 1, i32 noundef 0)
  %56 = add i32 %2, 27
  %57 = load i32, ptr @hf_s7comm_szl_0131_0002_erg_par, align 4
  %58 = tail call ptr @proto_tree_add_item(ptr noundef %1, i32 noundef %57, ptr noundef %0, i32 noundef %56, i32 noundef 1, i32 noundef 0)
  %59 = add i32 %2, 28
  %60 = load i32, ptr @hf_s7comm_szl_0131_0002_erg_pat_1, align 4
  %61 = tail call ptr @proto_tree_add_item(ptr noundef %1, i32 noundef %60, ptr noundef %0, i32 noundef %59, i32 noundef 2, i32 noundef 0)
  %62 = add i32 %2, 30
  %63 = load i32, ptr @hf_s7comm_szl_0131_0002_erg_pat_2, align 4
  %64 = tail call ptr @proto_tree_add_item(ptr noundef %1, i32 noundef %63, ptr noundef %0, i32 noundef %62, i32 noundef 2, i32 noundef 0)
  %65 = add i32 %2, 32
  %66 = load i32, ptr @hf_s7comm_szl_0131_0002_force, align 4
  %67 = tail call ptr @proto_tree_add_item(ptr noundef %1, i32 noundef %66, ptr noundef %0, i32 noundef %65, i32 noundef 2, i32 noundef 0)
  %68 = add i32 %2, 34
  %69 = load i32, ptr @hf_s7comm_szl_0131_0002_time, align 4
  %70 = tail call ptr @proto_tree_add_item(ptr noundef %1, i32 noundef %69, ptr noundef %0, i32 noundef %68, i32 noundef 2, i32 noundef 0)
  %71 = add i32 %2, 36
  %72 = load i32, ptr @hf_s7comm_szl_0131_0002_res, align 4
  %73 = tail call ptr @proto_tree_add_item(ptr noundef %1, i32 noundef %72, ptr noundef %0, i32 noundef %71, i32 noundef 4, i32 noundef 0)
  %74 = add i32 %2, 40
  ret i32 %74
}